; Function Attrs: nounwind uwtable
define internal i32 @io_close(ptr noundef %0) #0 {
  %2 = tail call i32 @lua_type(ptr noundef %0, i32 noundef 1) #9
  %3 = icmp eq i32 %2, -1
  br i1 %3, label %4, label %5

4:                                                ; preds = %1
  tail call void @lua_rawgeti(ptr noundef %0, i32 noundef -10001, i32 noundef 2) #9
  br label %5

5:                                                ; preds = %4, %1
  %6 = tail call ptr @luaL_checkudata(ptr noundef %0, i32 noundef 1, ptr noundef nonnull @.str.5) #9
  %7 = load ptr, ptr %6, align 8, !tbaa !4
  %8 = icmp eq ptr %7, null
  br i1 %8, label %9, label %tofile.exit

9:                                                ; preds = %5
  %10 = tail call i32 (ptr, ptr, ...) @luaL_error(ptr noundef %0, ptr noundef nonnull @.str.16) #9
  br label %tofile.exit

tofile.exit:                                      ; preds = %5, %9
  tail call void @lua_getfenv(ptr noundef %0, i32 noundef 1) #9
  tail call void @lua_getfield(ptr noundef %0, i32 noundef -1, ptr noundef nonnull @.str.17) #9
  %11 = tail call ptr @lua_tocfunction(ptr noundef %0, i32 noundef -1) #9
  %12 = tail call i32 %11(ptr noundef %0) #9
  ret i32 %12
}